target datalayout = "e-m:e-p270:32:32-p271:32:32-p272:64:64-i64:64-i128:128-f80:128-n8:16:32:64-S128"
target triple = "x86_64-pc-linux-gnu"

; Function Attrs: alwaysinline nounwind willreturn memory(none) uwtable
define internal zeroext i8 @av_clip_uint8_c(i32 noundef %0) #5 {
  %2 = alloca i8, align 1
  %3 = alloca i32, align 4
  store i32 %0, ptr %3, align 4, !tbaa !16
  %4 = load i32, ptr %3, align 4, !tbaa !16
  %5 = and i32 %4, -256
  %6 = icmp ne i32 %5, 0
  br i1 %6, label %7, label %12

7:                                                ; preds = %1
  %8 = load i32, ptr %3, align 4, !tbaa !16
  %9 = xor i32 %8, -1
  %10 = ashr i32 %9, 31
  %11 = trunc i32 %10 to i8
  store i8 %11, ptr %2, align 1
  br label %15

12:                                               ; preds = %1
  %13 = load i32, ptr %3, align 4, !tbaa !16
  %14 = trunc i32 %13 to i8
  store i8 %14, ptr %2, align 1
  br label %15

15:                                               ; preds = %12, %7
  %16 = load i8, ptr %2, align 1
  ret i8 %16
}

; Function Attrs: nounwind uwtable
define internal void @rv34_idct_dc_add_c(ptr noundef %0, i64 noundef %1, i32 noundef %2) #1 {
  %4 = alloca ptr, align 8
  %5 = alloca i64, align 8
  %6 = alloca i32, align 4
  %7 = alloca i32, align 4
  %8 = alloca i32, align 4
  store ptr %0, ptr %4, align 8, !tbaa !24
  store i64 %1, ptr %5, align 8, !tbaa !26
  store i32 %2, ptr %6, align 4, !tbaa !16
  call void @llvm.lifetime.start.p0(i64 4, ptr %7) #6
  call void @llvm.lifetime.start.p0(i64 4, ptr %8) #6
  %9 = load i32, ptr %6, align 4, !tbaa !16
  %10 = mul nsw i32 169, %9
  %11 = add nsw i32 %10, 512
  %12 = ashr i32 %11, 10
  store i32 %12, ptr %6, align 4, !tbaa !16
  store i32 0, ptr %7, align 4, !tbaa !16
  br label %13

13:                                               ; preds = %41, %3
  %14 = load i32, ptr %7, align 4, !tbaa !16
  %15 = icmp slt i32 %14, 4
  br i1 %15, label %16, label %44

16:                                               ; preds = %13
  store i32 0, ptr %8, align 4, !tbaa !16
  br label %17

17:                                               ; preds = %34, %16
  %18 = load i32, ptr %8, align 4, !tbaa !16
  %19 = icmp slt i32 %18, 4
  br i1 %19, label %20, label %37

20:                                               ; preds = %17
  %21 = load ptr, ptr %4, align 8, !tbaa !24
  %22 = load i32, ptr %8, align 4, !tbaa !16
  %23 = sext i32 %22 to i64
  %24 = getelementptr inbounds i8, ptr %21, i64 %23
  %25 = load i8, ptr %24, align 1, !tbaa !28
  %26 = zext i8 %25 to i32
  %27 = load i32, ptr %6, align 4, !tbaa !16
  %28 = add nsw i32 %26, %27
  %29 = call zeroext i8 @av_clip_uint8_c(i32 noundef %28) #7
  %30 = load ptr, ptr %4, align 8, !tbaa !24
  %31 = load i32, ptr %8, align 4, !tbaa !16
  %32 = sext i32 %31 to i64
  %33 = getelementptr inbounds i8, ptr %30, i64 %32
  store i8 %29, ptr %33, align 1, !tbaa !28
  br label %34

34:                                               ; preds = %20
  %35 = load i32, ptr %8, align 4, !tbaa !16
  %36 = add nsw i32 %35, 1
  store i32 %36, ptr %8, align 4, !tbaa !16
  br label %17, !llvm.loop !30

37:                                               ; preds = %17
  %38 = load i64, ptr %5, align 8, !tbaa !26
  %39 = load ptr, ptr %4, align 8, !tbaa !24
  %40 = getelementptr inbounds i8, ptr %39, i64 %38
  store ptr %40, ptr %4, align 8, !tbaa !24
  br label %41

41:                                               ; preds = %37
  %42 = load i32, ptr %7, align 4, !tbaa !16
  %43 = add nsw i32 %42, 1
  store i32 %43, ptr %7, align 4, !tbaa !16
  br label %13, !llvm.loop !31

44:                                               ; preds = %13
  call void @llvm.lifetime.end.p0(i64 4, ptr %8) #6
  call void @llvm.lifetime.end.p0(i64 4, ptr %7) #6
  ret void
}