; Function Attrs: nofree norecurse nosync nounwind memory(argmem: readwrite) uwtable
define internal void @rv34_idct_dc_add_c(ptr noundef captures(none) %0, i64 noundef %1, i32 noundef %2) #1 {
  %4 = mul nsw i32 %2, 169
  %5 = add nsw i32 %4, 512
  %6 = ashr i32 %5, 10
  br label %.preheader

.preheader:                                       ; preds = %3, %14
  %.01115 = phi i32 [ 0, %3 ], [ %16, %14 ]
  %.01214 = phi ptr [ %0, %3 ], [ %15, %14 ]
  br label %7

7:                                                ; preds = %.preheader, %7
  %indvars.iv = phi i64 [ 0, %.preheader ], [ %indvars.iv.next, %7 ]
  %8 = getelementptr inbounds nuw i8, ptr %.01214, i64 %indvars.iv
  %9 = load i8, ptr %8, align 1, !tbaa !21
  %10 = zext i8 %9 to i32
  %11 = add nsw i32 %6, %10
  %.not.i = icmp ult i32 %11, 256
  %isnotneg.i = icmp sgt i32 %11, -1
  %12 = sext i1 %isnotneg.i to i8
  %13 = trunc nuw i32 %11 to i8
  %.0.i = select i1 %.not.i, i8 %13, i8 %12
  store i8 %.0.i, ptr %8, align 1, !tbaa !21
  %indvars.iv.next = add nuw nsw i64 %indvars.iv, 1
  %exitcond.not = icmp eq i64 %indvars.iv.next, 4
  br i1 %exitcond.not, label %14, label %7, !llvm.loop !23

14:                                               ; preds = %7
  %15 = getelementptr inbounds i8, ptr %.01214, i64 %1
  %16 = add nuw nsw i32 %.01115, 1
  %exitcond17.not = icmp eq i32 %16, 4
  br i1 %exitcond17.not, label %17, label %.preheader, !llvm.loop !24

17:                                               ; preds = %14
  ret void
}